target datalayout = "e-m:e-p270:32:32-p271:32:32-p272:64:64-i64:64-i128:128-f80:128-n8:16:32:64-S128"
target triple = "x86_64-pc-linux-gnu"

; Function Attrs: nounwind uwtable
define void @ff_ivi_dc_col_slant(ptr noundef %0, ptr noundef %1, i64 noundef %2, i32 noundef %3) #0 {
  %5 = alloca ptr, align 8
  %6 = alloca ptr, align 8
  %7 = alloca i64, align 8
  %8 = alloca i32, align 4
  %9 = alloca i32, align 4
  %10 = alloca i32, align 4
  %11 = alloca i16, align 2
  store ptr %0, ptr %5, align 8, !tbaa !40
  store ptr %1, ptr %6, align 8, !tbaa !30
  store i64 %2, ptr %7, align 8, !tbaa !11
  store i32 %3, ptr %8, align 4, !tbaa !13
  call void @llvm.lifetime.start.p0(i64 4, ptr %9) #4
  call void @llvm.lifetime.start.p0(i64 4, ptr %10) #4
  call void @llvm.lifetime.start.p0(i64 2, ptr %11) #4
  %12 = load ptr, ptr %5, align 8, !tbaa !40
  %13 = load i32, ptr %12, align 4, !tbaa !13
  %14 = add nsw i32 %13, 1
  %15 = ashr i32 %14, 1
  %16 = trunc i32 %15 to i16
  store i16 %16, ptr %11, align 2, !tbaa !32
  store i32 0, ptr %10, align 4, !tbaa !13
  br label %17

17:                                               ; preds = %38, %4
  %18 = load i32, ptr %10, align 4, !tbaa !13
  %19 = load i32, ptr %8, align 4, !tbaa !13
  %20 = icmp slt i32 %18, %19
  br i1 %20, label %21, label %44

21:                                               ; preds = %17
  %22 = load i16, ptr %11, align 2, !tbaa !32
  %23 = load ptr, ptr %6, align 8, !tbaa !30
  %24 = getelementptr inbounds i16, ptr %23, i64 0
  store i16 %22, ptr %24, align 2, !tbaa !32
  store i32 1, ptr %9, align 4, !tbaa !13
  br label %25

25:                                               ; preds = %34, %21
  %26 = load i32, ptr %9, align 4, !tbaa !13
  %27 = load i32, ptr %8, align 4, !tbaa !13
  %28 = icmp slt i32 %26, %27
  br i1 %28, label %29, label %37

29:                                               ; preds = %25
  %30 = load ptr, ptr %6, align 8, !tbaa !30
  %31 = load i32, ptr %9, align 4, !tbaa !13
  %32 = sext i32 %31 to i64
  %33 = getelementptr inbounds i16, ptr %30, i64 %32
  store i16 0, ptr %33, align 2, !tbaa !32
  br label %34

34:                                               ; preds = %29
  %35 = load i32, ptr %9, align 4, !tbaa !13
  %36 = add nsw i32 %35, 1
  store i32 %36, ptr %9, align 4, !tbaa !13
  br label %25, !llvm.loop !63

37:                                               ; preds = %25
  br label %38

38:                                               ; preds = %37
  %39 = load i64, ptr %7, align 8, !tbaa !11
  %40 = load ptr, ptr %6, align 8, !tbaa !30
  %41 = getelementptr inbounds i16, ptr %40, i64 %39
  store ptr %41, ptr %6, align 8, !tbaa !30
  %42 = load i32, ptr %10, align 4, !tbaa !13
  %43 = add nsw i32 %42, 1
  store i32 %43, ptr %10, align 4, !tbaa !13
  br label %17, !llvm.loop !64

44:                                               ; preds = %17
  call void @llvm.lifetime.end.p0(i64 2, ptr %11) #4
  call void @llvm.lifetime.end.p0(i64 4, ptr %10) #4
  call void @llvm.lifetime.end.p0(i64 4, ptr %9) #4
  ret void
}