; Function Attrs: nofree norecurse nosync nounwind memory(argmem: readwrite) uwtable
define void @ff_ivi_dc_col_slant(ptr noundef readonly captures(none) %0, ptr noundef writeonly captures(none) %1, i64 noundef %2, i32 noundef %3) local_unnamed_addr #2 {
  %5 = load i32, ptr %0, align 4, !tbaa !34
  %6 = add nsw i32 %5, 1
  %7 = lshr i32 %6, 1
  %8 = trunc i32 %7 to i16
  %9 = icmp sgt i32 %3, 0
  br i1 %9, label %.lr.ph19, label %._crit_edge20

.lr.ph19:                                         ; preds = %4
  %.not = icmp eq i32 %3, 1
  br i1 %.not, label %._crit_edge20.loopexit, label %.lr.ph.us.preheader

.lr.ph.us.preheader:                              ; preds = %.lr.ph19
  %10 = shl i64 %2, 1
  %11 = add nsw i32 %3, -1
  %12 = zext nneg i32 %11 to i64
  %13 = shl nuw nsw i64 %12, 1
  %wide.trip.count = zext nneg i32 %3 to i64
  %invariant.gep = getelementptr i8, ptr %1, i64 2
  br label %.lr.ph.us

.lr.ph.us:                                        ; preds = %.lr.ph.us.preheader, %.lr.ph.us
  %indvar = phi i64 [ 0, %.lr.ph.us.preheader ], [ %indvar.next, %.lr.ph.us ]
  %.017.us = phi ptr [ %1, %.lr.ph.us.preheader ], [ %15, %.lr.ph.us ]
  %14 = mul i64 %10, %indvar
  %gep = getelementptr i8, ptr %invariant.gep, i64 %14
  store i16 %8, ptr %.017.us, align 2, !tbaa !27
  tail call void @llvm.memset.p0.i64(ptr align 2 %gep, i8 0, i64 %13, i1 false), !tbaa !27
  %15 = getelementptr inbounds i16, ptr %.017.us, i64 %2
  %indvar.next = add nuw nsw i64 %indvar, 1
  %exitcond.not = icmp eq i64 %indvar.next, %wide.trip.count
  br i1 %exitcond.not, label %._crit_edge20, label %.lr.ph.us, !llvm.loop !55

._crit_edge20.loopexit:                           ; preds = %.lr.ph19
  store i16 %8, ptr %1, align 2, !tbaa !27
  br label %._crit_edge20

._crit_edge20:                                    ; preds = %.lr.ph.us, %._crit_edge20.loopexit, %4
  ret void
}